Certificate:
    Data:
        Version: 3 (0x2)
        Serial Number:
            ef:bb:18:50:60:24:88:32:f2:21:f4:21:ee:cc:e5:b4
        Signature Algorithm: sha256WithRSAEncryption
        Issuer: CN=SecureDropServer
        Validity
            Not Before: Dec  2 23:19:25 2022 GMT
            Not After : Mar  6 23:19:25 2025 GMT
        Subject: CN=samuelvilt
        Subject Public Key Info:
            Public Key Algorithm: rsaEncryption
                Public-Key: (2048 bit)
                Modulus:
                    00:9f:03:82:93:c2:80:1c:9f:c4:b0:78:01:a4:0e:
                    54:60:ef:b0:72:e2:b6:55:2b:37:f8:98:41:53:a8:
                    09:d8:1d:33:a7:b9:b1:d0:f1:3f:b8:87:49:ed:00:
                    88:e1:23:94:ca:ff:e0:49:6b:49:14:7b:e6:6e:cc:
                    63:a0:5f:9d:28:d5:a1:16:47:c9:1d:05:fa:16:30:
                    3d:41:81:1b:f1:41:3d:07:fd:0d:72:cb:d7:50:15:
                    05:bd:69:66:fb:c0:56:41:5a:3c:76:42:16:eb:56:
                    45:eb:f2:e7:42:ed:0f:96:b9:f5:e1:68:ad:f4:d3:
                    01:a9:2a:ba:fa:d0:c0:ad:51:ba:7e:13:8b:81:1e:
                    bc:a5:35:2f:e6:47:94:9e:7d:45:3c:e0:f6:2e:3c:
                    ab:77:49:81:ab:c1:17:82:ed:f3:12:df:62:96:6f:
                    79:d7:2b:e9:0b:d3:b6:a1:48:ca:2b:e1:05:62:ca:
                    df:af:56:f1:b3:85:52:a7:fb:40:3b:12:e5:e1:41:
                    f7:7d:10:c0:0f:56:d3:48:c0:ec:39:00:3c:55:a4:
                    33:e7:88:e9:76:81:64:4a:d1:fd:36:92:7e:9f:a0:
                    a1:66:27:7e:6a:e1:2b:ba:53:36:eb:9d:4a:c6:85:
                    9a:b1:da:b7:b6:ab:6a:8c:2e:df:e1:9c:70:4a:fe:
                    2f:57
                Exponent: 65537 (0x10001)
        X509v3 extensions:
            X509v3 Basic Constraints: 
                CA:FALSE
            X509v3 Subject Key Identifier: 
                3A:BC:46:A7:AB:B5:8E:92:B6:7D:C9:20:EE:71:0B:A8:6D:D2:43:4F
            X509v3 Authority Key Identifier: 
                keyid:F0:D4:12:2D:0A:EB:A7:B5:9F:94:42:4D:48:1E:5F:17:18:D4:6B:D0
                DirName:/CN=SecureDropServer
                serial:7A:80:D6:DB:36:FF:3C:93:E6:E0:42:BD:8B:0D:56:C6:17:9D:0B:6F
            X509v3 Extended Key Usage: 
                TLS Web Client Authentication
            X509v3 Key Usage: 
                Digital Signature
    Signature Algorithm: sha256WithRSAEncryption
    Signature Value:
        40:5a:c4:1f:63:5a:6c:cd:97:24:f2:9c:52:98:ea:35:ca:7c:
        15:7b:15:db:d2:6f:3f:4a:37:dc:85:9d:52:84:18:6b:87:43:
        2f:53:b3:dd:ac:d4:73:43:22:ee:d4:cf:31:e0:3c:5f:48:74:
        81:b8:fb:06:54:0e:78:ce:e7:72:47:d8:e3:3f:72:86:1f:0f:
        8e:33:31:1e:7d:4d:12:cd:d2:30:57:e2:03:0a:16:d0:ce:17:
        05:e7:83:cb:1f:e8:76:f6:f6:ba:21:59:68:4a:8a:b5:69:6f:
        d1:09:7b:d2:da:f9:25:ee:76:20:6f:89:92:2e:c5:fb:1b:00:
        5d:98:7a:fe:d2:c4:f1:8f:43:d2:73:54:23:5d:7d:af:8a:c7:
        15:96:df:35:ca:85:c8:69:36:74:37:3f:68:a9:be:c9:81:82:
        52:22:9b:0f:b4:9b:8c:dc:f9:3d:69:46:65:58:53:d4:a8:8a:
        4e:c2:f8:f0:d1:ea:31:15:6d:fa:5b:e5:29:45:d8:a4:43:fa:
        5f:25:b8:fe:d6:29:e3:fc:06:9c:ee:9b:f5:1e:35:dd:25:9e:
        88:af:94:67:4d:46:cc:ae:e6:3e:03:d1:a0:25:e9:cd:da:a6:
        0e:b5:d1:42:b2:c3:42:b1:13:a2:c6:fd:ac:bd:e9:d6:46:e6:
        12:71:58:16
-----BEGIN CERTIFICATE-----
MIIDYzCCAkugAwIBAgIRAO+7GFBgJIgy8iH0Ie7M5bQwDQYJKoZIhvcNAQELBQAw
GzEZMBcGA1UEAwwQU2VjdXJlRHJvcFNlcnZlcjAeFw0yMjEyMDIyMzE5MjVaFw0y
NTAzMDYyMzE5MjVaMBUxEzARBgNVBAMMCnNhbXVlbHZpbHQwggEiMA0GCSqGSIb3
DQEBAQUAA4IBDwAwggEKAoIBAQCfA4KTwoAcn8SweAGkDlRg77By4rZVKzf4mEFT
qAnYHTOnubHQ8T+4h0ntAIjhI5TK/+BJa0kUe+ZuzGOgX50o1aEWR8kdBfoWMD1B
gRvxQT0H/Q1yy9dQFQW9aWb7wFZBWjx2QhbrVkXr8udC7Q+WufXhaK300wGpKrr6
0MCtUbp+E4uBHrylNS/mR5SefUU84PYuPKt3SYGrwReC7fMS32KWb3nXK+kL07ah
SMor4QViyt+vVvGzhVKn+0A7EuXhQfd9EMAPVtNIwOw5ADxVpDPniOl2gWRK0f02
kn6foKFmJ35q4Su6UzbrnUrGhZqx2re2q2qMLt/hnHBK/i9XAgMBAAGjgacwgaQw
CQYDVR0TBAIwADAdBgNVHQ4EFgQUOrxGp6u1jpK2fckg7nELqG3SQ08wVgYDVR0j
BE8wTYAU8NQSLQrrp7WflEJNSB5fFxjUa9ChH6QdMBsxGTAXBgNVBAMMEFNlY3Vy
ZURyb3BTZXJ2ZXKCFHqA1ts2/zyT5uBCvYsNVsYXnQtvMBMGA1UdJQQMMAoGCCsG
AQUFBwMCMAsGA1UdDwQEAwIHgDANBgkqhkiG9w0BAQsFAAOCAQEAQFrEH2NabM2X
JPKcUpjqNcp8FXsV29JvP0o33IWdUoQYa4dDL1Oz3azUc0Mi7tTPMeA8X0h0gbj7
BlQOeM7nckfY4z9yhh8PjjMxHn1NEs3SMFfiAwoW0M4XBeeDyx/odvb2uiFZaEqK
tWlv0Ql70tr5Je52IG+Jki7F+xsAXZh6/tLE8Y9D0nNUI119r4rHFZbfNcqFyGk2
dDc/aKm+yYGCUiKbD7SbjNz5PWlGZVhT1KiKTsL48NHqMRVt+lvlKUXYpEP6XyW4
/tYp4/wGnO6b9R413SWeiK+UZ01GzK7mPgPRoCXpzdqmDrXRQrLDQrETosb9rL3p
1kbmEnFYFg==
-----END CERTIFICATE-----
